target datalayout = "e-m:e-p270:32:32-p271:32:32-p272:64:64-i64:64-i128:128-f80:128-n8:16:32:64-S128"
target triple = "x86_64-pc-linux-gnu"

%struct._zend_ssa_op = type { i32, i32, i32, i32, i32, i32, i32, i32, i32 }
%struct._zend_ssa = type { %struct._zend_cfg, i32, i32, ptr, ptr, ptr, ptr }
%struct._zend_cfg = type { i32, i32, ptr, ptr, ptr, i32 }
%struct._zend_ssa_var = type { i32, i32, i32, i32, ptr, ptr, ptr, i8 }

; Function Attrs: alwaysinline nounwind uwtable
define internal i32 @zend_ssa_next_use(ptr noundef %0, i32 noundef %1, i32 noundef %2) #1 {
  %4 = alloca i32, align 4
  %5 = alloca ptr, align 8
  %6 = alloca i32, align 4
  %7 = alloca i32, align 4
  store ptr %0, ptr %5, align 8, !tbaa !13
  store i32 %1, ptr %6, align 4, !tbaa !11
  store i32 %2, ptr %7, align 4, !tbaa !11
  %8 = load i32, ptr %7, align 4, !tbaa !11
  %9 = load ptr, ptr %5, align 8, !tbaa !13
  %10 = sext i32 %8 to i64
  %11 = getelementptr inbounds %struct._zend_ssa_op, ptr %9, i64 %10
  store ptr %11, ptr %5, align 8, !tbaa !13
  %12 = load ptr, ptr %5, align 8, !tbaa !13
  %13 = getelementptr inbounds nuw %struct._zend_ssa_op, ptr %12, i32 0, i32 0
  %14 = load i32, ptr %13, align 4, !tbaa !20
  %15 = load i32, ptr %6, align 4, !tbaa !11
  %16 = icmp eq i32 %14, %15
  br i1 %16, label %17, label %21

17:                                               ; preds = %3
  %18 = load ptr, ptr %5, align 8, !tbaa !13
  %19 = getelementptr inbounds nuw %struct._zend_ssa_op, ptr %18, i32 0, i32 6
  %20 = load i32, ptr %19, align 4, !tbaa !123
  store i32 %20, ptr %4, align 4
  br label %35

21:                                               ; preds = %3
  %22 = load ptr, ptr %5, align 8, !tbaa !13
  %23 = getelementptr inbounds nuw %struct._zend_ssa_op, ptr %22, i32 0, i32 1
  %24 = load i32, ptr %23, align 4, !tbaa !23
  %25 = load i32, ptr %6, align 4, !tbaa !11
  %26 = icmp eq i32 %24, %25
  br i1 %26, label %27, label %31

27:                                               ; preds = %21
  %28 = load ptr, ptr %5, align 8, !tbaa !13
  %29 = getelementptr inbounds nuw %struct._zend_ssa_op, ptr %28, i32 0, i32 7
  %30 = load i32, ptr %29, align 4, !tbaa !124
  store i32 %30, ptr %4, align 4
  br label %35

31:                                               ; preds = %21
  %32 = load ptr, ptr %5, align 8, !tbaa !13
  %33 = getelementptr inbounds nuw %struct._zend_ssa_op, ptr %32, i32 0, i32 8
  %34 = load i32, ptr %33, align 4, !tbaa !125
  store i32 %34, ptr %4, align 4
  br label %35

35:                                               ; preds = %31, %27, %17
  %36 = load i32, ptr %4, align 4
  ret i32 %36
}

; Function Attrs: nounwind uwtable
define hidden void @zend_ssa_unlink_use_chain(ptr noundef %0, i32 noundef %1, i32 noundef %2) #0 {
  %4 = alloca ptr, align 8
  %5 = alloca i32, align 4
  %6 = alloca i32, align 4
  %7 = alloca i32, align 4
  %8 = alloca i32, align 4
  store ptr %0, ptr %4, align 8, !tbaa !48
  store i32 %1, ptr %5, align 4, !tbaa !11
  store i32 %2, ptr %6, align 4, !tbaa !11
  %9 = load ptr, ptr %4, align 8, !tbaa !48
  %10 = getelementptr inbounds nuw %struct._zend_ssa, ptr %9, i32 0, i32 5
  %11 = load ptr, ptr %10, align 8, !tbaa !116
  %12 = load i32, ptr %6, align 4, !tbaa !11
  %13 = sext i32 %12 to i64
  %14 = getelementptr inbounds %struct._zend_ssa_var, ptr %11, i64 %13
  %15 = getelementptr inbounds nuw %struct._zend_ssa_var, ptr %14, i32 0, i32 3
  %16 = load i32, ptr %15, align 4, !tbaa !122
  %17 = load i32, ptr %5, align 4, !tbaa !11
  %18 = icmp eq i32 %16, %17
  br i1 %18, label %19, label %33

19:                                               ; preds = %3
  %20 = load ptr, ptr %4, align 8, !tbaa !48
  %21 = getelementptr inbounds nuw %struct._zend_ssa, ptr %20, i32 0, i32 4
  %22 = load ptr, ptr %21, align 8, !tbaa !97
  %23 = load i32, ptr %6, align 4, !tbaa !11
  %24 = load i32, ptr %5, align 4, !tbaa !11
  %25 = call i32 @zend_ssa_next_use(ptr noundef %22, i32 noundef %23, i32 noundef %24)
  %26 = load ptr, ptr %4, align 8, !tbaa !48
  %27 = getelementptr inbounds nuw %struct._zend_ssa, ptr %26, i32 0, i32 5
  %28 = load ptr, ptr %27, align 8, !tbaa !116
  %29 = load i32, ptr %6, align 4, !tbaa !11
  %30 = sext i32 %29 to i64
  %31 = getelementptr inbounds %struct._zend_ssa_var, ptr %28, i64 %30
  %32 = getelementptr inbounds nuw %struct._zend_ssa_var, ptr %31, i32 0, i32 3
  store i32 %25, ptr %32, align 4, !tbaa !122
  br label %189

33:                                               ; preds = %3
  call void @llvm.lifetime.start.p0(i64 4, ptr %7) #13
  %34 = load ptr, ptr %4, align 8, !tbaa !48
  %35 = getelementptr inbounds nuw %struct._zend_ssa, ptr %34, i32 0, i32 5
  %36 = load ptr, ptr %35, align 8, !tbaa !116
  %37 = load i32, ptr %6, align 4, !tbaa !11
  %38 = sext i32 %37 to i64
  %39 = getelementptr inbounds %struct._zend_ssa_var, ptr %36, i64 %38
  %40 = getelementptr inbounds nuw %struct._zend_ssa_var, ptr %39, i32 0, i32 3
  %41 = load i32, ptr %40, align 4, !tbaa !122
  store i32 %41, ptr %7, align 4, !tbaa !11
  br label %42

42:                                               ; preds = %186, %33
  %43 = load i32, ptr %7, align 4, !tbaa !11
  %44 = icmp sge i32 %43, 0
  br i1 %44, label %45, label %187

45:                                               ; preds = %42
  %46 = load ptr, ptr %4, align 8, !tbaa !48
  %47 = getelementptr inbounds nuw %struct._zend_ssa, ptr %46, i32 0, i32 4
  %48 = load ptr, ptr %47, align 8, !tbaa !97
  %49 = load i32, ptr %7, align 4, !tbaa !11
  %50 = sext i32 %49 to i64
  %51 = getelementptr inbounds %struct._zend_ssa_op, ptr %48, i64 %50
  %52 = getelementptr inbounds nuw %struct._zend_ssa_op, ptr %51, i32 0, i32 2
  %53 = load i32, ptr %52, align 4, !tbaa !26
  %54 = load i32, ptr %6, align 4, !tbaa !11
  %55 = icmp eq i32 %53, %54
  br i1 %55, label %56, label %91

56:                                               ; preds = %45
  %57 = load ptr, ptr %4, align 8, !tbaa !48
  %58 = getelementptr inbounds nuw %struct._zend_ssa, ptr %57, i32 0, i32 4
  %59 = load ptr, ptr %58, align 8, !tbaa !97
  %60 = load i32, ptr %7, align 4, !tbaa !11
  %61 = sext i32 %60 to i64
  %62 = getelementptr inbounds %struct._zend_ssa_op, ptr %59, i64 %61
  %63 = getelementptr inbounds nuw %struct._zend_ssa_op, ptr %62, i32 0, i32 8
  %64 = load i32, ptr %63, align 4, !tbaa !125
  %65 = load i32, ptr %5, align 4, !tbaa !11
  %66 = icmp eq i32 %64, %65
  br i1 %66, label %67, label %81

67:                                               ; preds = %56
  %68 = load ptr, ptr %4, align 8, !tbaa !48
  %69 = getelementptr inbounds nuw %struct._zend_ssa, ptr %68, i32 0, i32 4
  %70 = load ptr, ptr %69, align 8, !tbaa !97
  %71 = load i32, ptr %6, align 4, !tbaa !11
  %72 = load i32, ptr %5, align 4, !tbaa !11
  %73 = call i32 @zend_ssa_next_use(ptr noundef %70, i32 noundef %71, i32 noundef %72)
  %74 = load ptr, ptr %4, align 8, !tbaa !48
  %75 = getelementptr inbounds nuw %struct._zend_ssa, ptr %74, i32 0, i32 4
  %76 = load ptr, ptr %75, align 8, !tbaa !97
  %77 = load i32, ptr %7, align 4, !tbaa !11
  %78 = sext i32 %77 to i64
  %79 = getelementptr inbounds %struct._zend_ssa_op, ptr %76, i64 %78
  %80 = getelementptr inbounds nuw %struct._zend_ssa_op, ptr %79, i32 0, i32 8
  store i32 %73, ptr %80, align 4, !tbaa !125
  store i32 1, ptr %8, align 4
  br label %188

81:                                               ; preds = %56
  %82 = load ptr, ptr %4, align 8, !tbaa !48
  %83 = getelementptr inbounds nuw %struct._zend_ssa, ptr %82, i32 0, i32 4
  %84 = load ptr, ptr %83, align 8, !tbaa !97
  %85 = load i32, ptr %7, align 4, !tbaa !11
  %86 = sext i32 %85 to i64
  %87 = getelementptr inbounds %struct._zend_ssa_op, ptr %84, i64 %86
  %88 = getelementptr inbounds nuw %struct._zend_ssa_op, ptr %87, i32 0, i32 8
  %89 = load i32, ptr %88, align 4, !tbaa !125
  store i32 %89, ptr %7, align 4, !tbaa !11
  br label %90

90:                                               ; preds = %81
  br label %186

91:                                               ; preds = %45
  %92 = load ptr, ptr %4, align 8, !tbaa !48
  %93 = getelementptr inbounds nuw %struct._zend_ssa, ptr %92, i32 0, i32 4
  %94 = load ptr, ptr %93, align 8, !tbaa !97
  %95 = load i32, ptr %7, align 4, !tbaa !11
  %96 = sext i32 %95 to i64
  %97 = getelementptr inbounds %struct._zend_ssa_op, ptr %94, i64 %96
  %98 = getelementptr inbounds nuw %struct._zend_ssa_op, ptr %97, i32 0, i32 0
  %99 = load i32, ptr %98, align 4, !tbaa !20
  %100 = load i32, ptr %6, align 4, !tbaa !11
  %101 = icmp eq i32 %99, %100
  br i1 %101, label %102, label %137

102:                                              ; preds = %91
  %103 = load ptr, ptr %4, align 8, !tbaa !48
  %104 = getelementptr inbounds nuw %struct._zend_ssa, ptr %103, i32 0, i32 4
  %105 = load ptr, ptr %104, align 8, !tbaa !97
  %106 = load i32, ptr %7, align 4, !tbaa !11
  %107 = sext i32 %106 to i64
  %108 = getelementptr inbounds %struct._zend_ssa_op, ptr %105, i64 %107
  %109 = getelementptr inbounds nuw %struct._zend_ssa_op, ptr %108, i32 0, i32 6
  %110 = load i32, ptr %109, align 4, !tbaa !123
  %111 = load i32, ptr %5, align 4, !tbaa !11
  %112 = icmp eq i32 %110, %111
  br i1 %112, label %113, label %127

113:                                              ; preds = %102
  %114 = load ptr, ptr %4, align 8, !tbaa !48
  %115 = getelementptr inbounds nuw %struct._zend_ssa, ptr %114, i32 0, i32 4
  %116 = load ptr, ptr %115, align 8, !tbaa !97
  %117 = load i32, ptr %6, align 4, !tbaa !11
  %118 = load i32, ptr %5, align 4, !tbaa !11
  %119 = call i32 @zend_ssa_next_use(ptr noundef %116, i32 noundef %117, i32 noundef %118)
  %120 = load ptr, ptr %4, align 8, !tbaa !48
  %121 = getelementptr inbounds nuw %struct._zend_ssa, ptr %120, i32 0, i32 4
  %122 = load ptr, ptr %121, align 8, !tbaa !97
  %123 = load i32, ptr %7, align 4, !tbaa !11
  %124 = sext i32 %123 to i64
  %125 = getelementptr inbounds %struct._zend_ssa_op, ptr %122, i64 %124
  %126 = getelementptr inbounds nuw %struct._zend_ssa_op, ptr %125, i32 0, i32 6
  store i32 %119, ptr %126, align 4, !tbaa !123
  store i32 1, ptr %8, align 4
  br label %188

127:                                              ; preds = %102
  %128 = load ptr, ptr %4, align 8, !tbaa !48
  %129 = getelementptr inbounds nuw %struct._zend_ssa, ptr %128, i32 0, i32 4
  %130 = load ptr, ptr %129, align 8, !tbaa !97
  %131 = load i32, ptr %7, align 4, !tbaa !11
  %132 = sext i32 %131 to i64
  %133 = getelementptr inbounds %struct._zend_ssa_op, ptr %130, i64 %132
  %134 = getelementptr inbounds nuw %struct._zend_ssa_op, ptr %133, i32 0, i32 6
  %135 = load i32, ptr %134, align 4, !tbaa !123
  store i32 %135, ptr %7, align 4, !tbaa !11
  br label %136

136:                                              ; preds = %127
  br label %185

137:                                              ; preds = %91
  %138 = load ptr, ptr %4, align 8, !tbaa !48
  %139 = getelementptr inbounds nuw %struct._zend_ssa, ptr %138, i32 0, i32 4
  %140 = load ptr, ptr %139, align 8, !tbaa !97
  %141 = load i32, ptr %7, align 4, !tbaa !11
  %142 = sext i32 %141 to i64
  %143 = getelementptr inbounds %struct._zend_ssa_op, ptr %140, i64 %142
  %144 = getelementptr inbounds nuw %struct._zend_ssa_op, ptr %143, i32 0, i32 1
  %145 = load i32, ptr %144, align 4, !tbaa !23
  %146 = load i32, ptr %6, align 4, !tbaa !11
  %147 = icmp eq i32 %145, %146
  br i1 %147, label %148, label %183

148:                                              ; preds = %137
  %149 = load ptr, ptr %4, align 8, !tbaa !48
  %150 = getelementptr inbounds nuw %struct._zend_ssa, ptr %149, i32 0, i32 4
  %151 = load ptr, ptr %150, align 8, !tbaa !97
  %152 = load i32, ptr %7, align 4, !tbaa !11
  %153 = sext i32 %152 to i64
  %154 = getelementptr inbounds %struct._zend_ssa_op, ptr %151, i64 %153
  %155 = getelementptr inbounds nuw %struct._zend_ssa_op, ptr %154, i32 0, i32 7
  %156 = load i32, ptr %155, align 4, !tbaa !124
  %157 = load i32, ptr %5, align 4, !tbaa !11
  %158 = icmp eq i32 %156, %157
  br i1 %158, label %159, label %173

159:                                              ; preds = %148
  %160 = load ptr, ptr %4, align 8, !tbaa !48
  %161 = getelementptr inbounds nuw %struct._zend_ssa, ptr %160, i32 0, i32 4
  %162 = load ptr, ptr %161, align 8, !tbaa !97
  %163 = load i32, ptr %6, align 4, !tbaa !11
  %164 = load i32, ptr %5, align 4, !tbaa !11
  %165 = call i32 @zend_ssa_next_use(ptr noundef %162, i32 noundef %163, i32 noundef %164)
  %166 = load ptr, ptr %4, align 8, !tbaa !48
  %167 = getelementptr inbounds nuw %struct._zend_ssa, ptr %166, i32 0, i32 4
  %168 = load ptr, ptr %167, align 8, !tbaa !97
  %169 = load i32, ptr %7, align 4, !tbaa !11
  %170 = sext i32 %169 to i64
  %171 = getelementptr inbounds %struct._zend_ssa_op, ptr %168, i64 %170
  %172 = getelementptr inbounds nuw %struct._zend_ssa_op, ptr %171, i32 0, i32 7
  store i32 %165, ptr %172, align 4, !tbaa !124
  store i32 1, ptr %8, align 4
  br label %188

173:                                              ; preds = %148
  %174 = load ptr, ptr %4, align 8, !tbaa !48
  %175 = getelementptr inbounds nuw %struct._zend_ssa, ptr %174, i32 0, i32 4
  %176 = load ptr, ptr %175, align 8, !tbaa !97
  %177 = load i32, ptr %7, align 4, !tbaa !11
  %178 = sext i32 %177 to i64
  %179 = getelementptr inbounds %struct._zend_ssa_op, ptr %176, i64 %178
  %180 = getelementptr inbounds nuw %struct._zend_ssa_op, ptr %179, i32 0, i32 7
  %181 = load i32, ptr %180, align 4, !tbaa !124
  store i32 %181, ptr %7, align 4, !tbaa !11
  br label %182

182:                                              ; preds = %173
  br label %184

183:                                              ; preds = %137
  br label %187

184:                                              ; preds = %182
  br label %185

185:                                              ; preds = %184, %136
  br label %186

186:                                              ; preds = %185, %90
  br label %42

187:                                              ; preds = %183, %42
  unreachable

188:                                              ; preds = %159, %113, %67
  call void @llvm.lifetime.end.p0(i64 4, ptr %7) #13
  br label %189

189:                                              ; preds = %188, %19
  ret void
}