; Function Attrs: nofree norecurse nosync nounwind memory(readwrite, inaccessiblemem: write) uwtable
define hidden void @zend_ssa_unlink_use_chain(ptr noundef readonly captures(none) %0, i32 noundef %1, i32 noundef %2) local_unnamed_addr #7 {
  %4 = getelementptr inbounds nuw i8, ptr %0, i64 64
  %5 = load ptr, ptr %4, align 8, !tbaa !115
  %6 = sext i32 %2 to i64
  %7 = getelementptr inbounds %struct._zend_ssa_var, ptr %5, i64 %6, i32 3
  %8 = load i32, ptr %7, align 4, !tbaa !120
  %9 = icmp eq i32 %8, %1
  %10 = getelementptr inbounds nuw i8, ptr %0, i64 56
  %11 = load ptr, ptr %10, align 8, !tbaa !106
  br i1 %9, label %12, label %.preheader

12:                                               ; preds = %3
  %13 = sext i32 %1 to i64
  %14 = getelementptr inbounds %struct._zend_ssa_op, ptr %11, i64 %13
  %15 = load i32, ptr %14, align 4, !tbaa !12
  %16 = icmp eq i32 %15, %2
  br i1 %16, label %zend_ssa_next_use.exit, label %17

17:                                               ; preds = %12
  %18 = getelementptr inbounds nuw i8, ptr %14, i64 4
  %19 = load i32, ptr %18, align 4, !tbaa !15
  %20 = icmp eq i32 %19, %2
  %. = select i1 %20, i64 28, i64 32
  br label %zend_ssa_next_use.exit

zend_ssa_next_use.exit:                           ; preds = %17, %12
  %.sink = phi i64 [ 24, %12 ], [ %., %17 ]
  %21 = getelementptr inbounds nuw i8, ptr %14, i64 %.sink
  %.0.i = load i32, ptr %21, align 4, !tbaa !11
  store i32 %.0.i, ptr %7, align 4, !tbaa !120
  br label %78

.preheader:                                       ; preds = %3, %.preheader.backedge
  %.0 = phi i32 [ %.0.be, %.preheader.backedge ], [ %8, %3 ]
  %22 = zext nneg i32 %.0 to i64
  %23 = getelementptr inbounds nuw %struct._zend_ssa_op, ptr %11, i64 %22
  %24 = getelementptr inbounds nuw i8, ptr %23, i64 8
  %25 = load i32, ptr %24, align 4, !tbaa !18
  %26 = icmp eq i32 %25, %2
  br i1 %26, label %27, label %42

27:                                               ; preds = %.preheader
  %28 = getelementptr inbounds nuw i8, ptr %23, i64 32
  %29 = load i32, ptr %28, align 4, !tbaa !123
  %30 = icmp eq i32 %29, %1
  br i1 %30, label %31, label %.preheader.backedge

31:                                               ; preds = %27
  %32 = sext i32 %1 to i64
  %33 = getelementptr inbounds %struct._zend_ssa_op, ptr %11, i64 %32
  %34 = load i32, ptr %33, align 4, !tbaa !12
  %35 = icmp eq i32 %34, %2
  br i1 %35, label %zend_ssa_next_use.exit59, label %36

36:                                               ; preds = %31
  %37 = getelementptr inbounds nuw i8, ptr %33, i64 4
  %38 = load i32, ptr %37, align 4, !tbaa !15
  %39 = icmp eq i32 %38, %2
  %.78 = select i1 %39, i64 28, i64 32
  br label %zend_ssa_next_use.exit59

zend_ssa_next_use.exit59:                         ; preds = %36, %31
  %.sink75 = phi i64 [ 24, %31 ], [ %.78, %36 ]
  %40 = getelementptr inbounds nuw i8, ptr %33, i64 %.sink75
  %.0.i58 = load i32, ptr %40, align 4, !tbaa !11
  %41 = getelementptr inbounds nuw %struct._zend_ssa_op, ptr %11, i64 %22, i32 8
  store i32 %.0.i58, ptr %41, align 4, !tbaa !123
  br label %78

42:                                               ; preds = %.preheader
  %43 = load i32, ptr %23, align 4, !tbaa !12
  %44 = icmp eq i32 %43, %2
  br i1 %44, label %45, label %60

45:                                               ; preds = %42
  %46 = getelementptr inbounds nuw i8, ptr %23, i64 24
  %47 = load i32, ptr %46, align 4, !tbaa !121
  %48 = icmp eq i32 %47, %1
  br i1 %48, label %49, label %.preheader.backedge

49:                                               ; preds = %45
  %50 = sext i32 %1 to i64
  %51 = getelementptr inbounds %struct._zend_ssa_op, ptr %11, i64 %50
  %52 = load i32, ptr %51, align 4, !tbaa !12
  %53 = icmp eq i32 %52, %2
  br i1 %53, label %zend_ssa_next_use.exit62, label %54

54:                                               ; preds = %49
  %55 = getelementptr inbounds nuw i8, ptr %51, i64 4
  %56 = load i32, ptr %55, align 4, !tbaa !15
  %57 = icmp eq i32 %56, %2
  %.79 = select i1 %57, i64 28, i64 32
  br label %zend_ssa_next_use.exit62

zend_ssa_next_use.exit62:                         ; preds = %54, %49
  %.sink76 = phi i64 [ 24, %49 ], [ %.79, %54 ]
  %58 = getelementptr inbounds nuw i8, ptr %51, i64 %.sink76
  %.0.i61 = load i32, ptr %58, align 4, !tbaa !11
  %59 = getelementptr inbounds nuw %struct._zend_ssa_op, ptr %11, i64 %22, i32 6
  store i32 %.0.i61, ptr %59, align 4, !tbaa !121
  br label %78

60:                                               ; preds = %42
  %61 = getelementptr inbounds nuw i8, ptr %23, i64 4
  %62 = load i32, ptr %61, align 4, !tbaa !15
  %63 = icmp eq i32 %62, %2
  tail call void @llvm.assume(i1 %63)
  %64 = getelementptr inbounds nuw i8, ptr %23, i64 28
  %65 = load i32, ptr %64, align 4, !tbaa !122
  %66 = icmp eq i32 %65, %1
  br i1 %66, label %67, label %.preheader.backedge

.preheader.backedge:                              ; preds = %60, %45, %27
  %.0.be = phi i32 [ %29, %27 ], [ %47, %45 ], [ %65, %60 ]
  br label %.preheader

67:                                               ; preds = %60
  %68 = sext i32 %1 to i64
  %69 = getelementptr inbounds %struct._zend_ssa_op, ptr %11, i64 %68
  %70 = load i32, ptr %69, align 4, !tbaa !12
  %71 = icmp eq i32 %70, %2
  br i1 %71, label %zend_ssa_next_use.exit65, label %72

72:                                               ; preds = %67
  %73 = getelementptr inbounds nuw i8, ptr %69, i64 4
  %74 = load i32, ptr %73, align 4, !tbaa !15
  %75 = icmp eq i32 %74, %2
  %.80 = select i1 %75, i64 28, i64 32
  br label %zend_ssa_next_use.exit65

zend_ssa_next_use.exit65:                         ; preds = %72, %67
  %.sink77 = phi i64 [ 24, %67 ], [ %.80, %72 ]
  %76 = getelementptr inbounds nuw i8, ptr %69, i64 %.sink77
  %.0.i64 = load i32, ptr %76, align 4, !tbaa !11
  %77 = getelementptr inbounds nuw %struct._zend_ssa_op, ptr %11, i64 %22, i32 7
  store i32 %.0.i64, ptr %77, align 4, !tbaa !122
  br label %78

78:                                               ; preds = %zend_ssa_next_use.exit59, %zend_ssa_next_use.exit62, %zend_ssa_next_use.exit65, %zend_ssa_next_use.exit
  ret void
}